; Function Attrs: nounwind uwtable
define ptr @l_Lean_ofExcept___at_Lean_Meta_reduceBoolNativeUnsafe___spec__2___rarg(ptr noundef %0, ptr noundef %1, ptr noundef %2, ptr noundef %3, ptr noundef %4, ptr noundef %5) local_unnamed_addr #1 {
  %7 = ptrtoint ptr %0 to i64
  %8 = and i64 %7, 1
  %.not.i = icmp eq i64 %8, 0
  br i1 %.not.i, label %12, label %9

9:                                                ; preds = %6
  %10 = lshr i64 %7, 1
  %11 = trunc i64 %10 to i32
  br label %lean_obj_tag.exit

12:                                               ; preds = %6
  %13 = getelementptr i8, ptr %0, i64 4
  %.val.i = load i32, ptr %13, align 4
  %14 = lshr i32 %.val.i, 24
  br label %lean_obj_tag.exit

lean_obj_tag.exit:                                ; preds = %9, %12
  %.0.i = phi i32 [ %11, %9 ], [ %14, %12 ]
  %15 = icmp eq i32 %.0.i, 0
  %16 = getelementptr inbounds nuw i8, ptr %0, i64 8
  %17 = load ptr, ptr %16, align 8, !tbaa !12
  br i1 %15, label %18, label %21

18:                                               ; preds = %lean_obj_tag.exit
  %19 = tail call ptr @l_Lean_stringToMessageData(ptr noundef %17) #5
  %20 = tail call ptr @l_Lean_throwError___at_Lean_Meta_reduceBoolNativeUnsafe___spec__3___rarg(ptr noundef %19, ptr noundef %1, ptr noundef %2, ptr noundef %3, ptr noundef %4, ptr noundef %5)
  br label %36

21:                                               ; preds = %lean_obj_tag.exit
  %22 = ptrtoint ptr %17 to i64
  %23 = and i64 %22, 1
  %.not = icmp eq i64 %23, 0
  br i1 %.not, label %24, label %lean_inc.exit

24:                                               ; preds = %21
  %.val.i18 = load i32, ptr %17, align 4, !tbaa !4
  %25 = icmp sgt i32 %.val.i18, 0
  br i1 %25, label %26, label %28, !prof !11

26:                                               ; preds = %24
  %27 = add nuw i32 %.val.i18, 1
  store i32 %27, ptr %17, align 4, !tbaa !4
  br label %lean_inc.exit

28:                                               ; preds = %24
  %.not.i19 = icmp eq i32 %.val.i18, 0
  br i1 %.not.i19, label %lean_inc.exit, label %29

29:                                               ; preds = %28
  tail call void @lean_inc_ref_cold(ptr noundef nonnull %17) #5
  br label %lean_inc.exit

lean_inc.exit:                                    ; preds = %29, %28, %26, %21
  tail call void @lean_inc_heartbeat() #5
  %30 = tail call noalias ptr @mi_malloc_small(i64 noundef 24) #5
  %31 = icmp eq ptr %30, null
  br i1 %31, label %32, label %lean_alloc_ctor.exit

32:                                               ; preds = %lean_inc.exit
  tail call void @lean_internal_panic_out_of_memory() #4
  unreachable

lean_alloc_ctor.exit:                             ; preds = %lean_inc.exit
  %33 = getelementptr inbounds nuw i8, ptr %30, i64 4
  store i32 1, ptr %30, align 4, !tbaa !4
  store i32 131096, ptr %33, align 4
  %34 = getelementptr inbounds nuw i8, ptr %30, i64 8
  store ptr %17, ptr %34, align 8, !tbaa !12
  %35 = getelementptr inbounds nuw i8, ptr %30, i64 16
  store ptr %5, ptr %35, align 8, !tbaa !12
  br label %36

36:                                               ; preds = %lean_alloc_ctor.exit, %18
  %.0 = phi ptr [ %20, %18 ], [ %30, %lean_alloc_ctor.exit ]
  ret ptr %.0
}